target datalayout = "e-m:e-p270:32:32-p271:32:32-p272:64:64-i64:64-i128:128-f80:128-n8:16:32:64-S128"
target triple = "x86_64-pc-linux-gnu"

%struct.Clu_Man_t_ = type { i32, i32, i32, i32, i32, i32, i32, i32, i32, i32, i32, i32, i32, i32, i32, ptr, ptr, ptr, ptr, i32, i32, i32, ptr, ptr, ptr, i32, i32, i32, i32, ptr, ptr, ptr, i32, i32 }
%struct.Fra_Sml_t_ = type { ptr, i32, i32, i32, i32, i32, i32, i32, i32, [0 x i32] }
%struct.Dar_Cut_t_ = type { i32, i32, [4 x i32] }

; Function Attrs: nounwind uwtable
define void @transpose32a(ptr noundef %0) #0 {
  %2 = alloca ptr, align 8
  %3 = alloca i32, align 4
  %4 = alloca i32, align 4
  %5 = alloca i64, align 8
  %6 = alloca i64, align 8
  store ptr %0, ptr %2, align 8, !tbaa !42
  call void @llvm.lifetime.start.p0(i64 4, ptr %3) #11
  call void @llvm.lifetime.start.p0(i64 4, ptr %4) #11
  call void @llvm.lifetime.start.p0(i64 8, ptr %5) #11
  call void @llvm.lifetime.start.p0(i64 8, ptr %6) #11
  store i32 16, ptr %3, align 4, !tbaa !21
  store i64 65535, ptr %5, align 8, !tbaa !45
  br label %7

7:                                                ; preds = %65, %1
  %8 = load i32, ptr %3, align 4, !tbaa !21
  %9 = icmp ne i32 %8, 0
  br i1 %9, label %10, label %74

10:                                               ; preds = %7
  store i32 0, ptr %4, align 4, !tbaa !21
  br label %11

11:                                               ; preds = %56, %10
  %12 = load i32, ptr %4, align 4, !tbaa !21
  %13 = icmp slt i32 %12, 32
  br i1 %13, label %14, label %64

14:                                               ; preds = %11
  %15 = load ptr, ptr %2, align 8, !tbaa !42
  %16 = load i32, ptr %4, align 4, !tbaa !21
  %17 = sext i32 %16 to i64
  %18 = getelementptr inbounds i32, ptr %15, i64 %17
  %19 = load i32, ptr %18, align 4, !tbaa !21
  %20 = load ptr, ptr %2, align 8, !tbaa !42
  %21 = load i32, ptr %4, align 4, !tbaa !21
  %22 = load i32, ptr %3, align 4, !tbaa !21
  %23 = or i32 %21, %22
  %24 = sext i32 %23 to i64
  %25 = getelementptr inbounds i32, ptr %20, i64 %24
  %26 = load i32, ptr %25, align 4, !tbaa !21
  %27 = load i32, ptr %3, align 4, !tbaa !21
  %28 = lshr i32 %26, %27
  %29 = xor i32 %19, %28
  %30 = zext i32 %29 to i64
  %31 = load i64, ptr %5, align 8, !tbaa !45
  %32 = and i64 %30, %31
  store i64 %32, ptr %6, align 8, !tbaa !45
  %33 = load i64, ptr %6, align 8, !tbaa !45
  %34 = load ptr, ptr %2, align 8, !tbaa !42
  %35 = load i32, ptr %4, align 4, !tbaa !21
  %36 = sext i32 %35 to i64
  %37 = getelementptr inbounds i32, ptr %34, i64 %36
  %38 = load i32, ptr %37, align 4, !tbaa !21
  %39 = zext i32 %38 to i64
  %40 = xor i64 %39, %33
  %41 = trunc i64 %40 to i32
  store i32 %41, ptr %37, align 4, !tbaa !21
  %42 = load i64, ptr %6, align 8, !tbaa !45
  %43 = load i32, ptr %3, align 4, !tbaa !21
  %44 = zext i32 %43 to i64
  %45 = shl i64 %42, %44
  %46 = load ptr, ptr %2, align 8, !tbaa !42
  %47 = load i32, ptr %4, align 4, !tbaa !21
  %48 = load i32, ptr %3, align 4, !tbaa !21
  %49 = or i32 %47, %48
  %50 = sext i32 %49 to i64
  %51 = getelementptr inbounds i32, ptr %46, i64 %50
  %52 = load i32, ptr %51, align 4, !tbaa !21
  %53 = zext i32 %52 to i64
  %54 = xor i64 %53, %45
  %55 = trunc i64 %54 to i32
  store i32 %55, ptr %51, align 4, !tbaa !21
  br label %56

56:                                               ; preds = %14
  %57 = load i32, ptr %4, align 4, !tbaa !21
  %58 = load i32, ptr %3, align 4, !tbaa !21
  %59 = or i32 %57, %58
  %60 = add nsw i32 %59, 1
  %61 = load i32, ptr %3, align 4, !tbaa !21
  %62 = xor i32 %61, -1
  %63 = and i32 %60, %62
  store i32 %63, ptr %4, align 4, !tbaa !21
  br label %11, !llvm.loop !46

64:                                               ; preds = %11
  br label %65

65:                                               ; preds = %64
  %66 = load i32, ptr %3, align 4, !tbaa !21
  %67 = ashr i32 %66, 1
  store i32 %67, ptr %3, align 4, !tbaa !21
  %68 = load i64, ptr %5, align 8, !tbaa !45
  %69 = load i32, ptr %3, align 4, !tbaa !21
  %70 = zext i32 %69 to i64
  %71 = shl i64 %68, %70
  %72 = load i64, ptr %5, align 8, !tbaa !45
  %73 = xor i64 %72, %71
  store i64 %73, ptr %5, align 8, !tbaa !45
  br label %7, !llvm.loop !47

74:                                               ; preds = %7
  call void @llvm.lifetime.end.p0(i64 8, ptr %6) #11
  call void @llvm.lifetime.end.p0(i64 8, ptr %5) #11
  call void @llvm.lifetime.end.p0(i64 4, ptr %4) #11
  call void @llvm.lifetime.end.p0(i64 4, ptr %3) #11
  ret void
}

; Function Attrs: inlinehint nounwind uwtable
define internal ptr @Fra_ObjSim(ptr noundef %0, i32 noundef %1) #2 {
  %3 = alloca ptr, align 8
  %4 = alloca i32, align 4
  store ptr %0, ptr %3, align 8, !tbaa !48
  store i32 %1, ptr %4, align 4, !tbaa !21
  %5 = load ptr, ptr %3, align 8, !tbaa !48
  %6 = getelementptr inbounds nuw %struct.Fra_Sml_t_, ptr %5, i32 0, i32 9
  %7 = getelementptr inbounds [0 x i32], ptr %6, i64 0, i64 0
  %8 = load ptr, ptr %3, align 8, !tbaa !48
  %9 = getelementptr inbounds nuw %struct.Fra_Sml_t_, ptr %8, i32 0, i32 4
  %10 = load i32, ptr %9, align 4, !tbaa !52
  %11 = load i32, ptr %4, align 4, !tbaa !21
  %12 = mul nsw i32 %10, %11
  %13 = sext i32 %12 to i64
  %14 = getelementptr inbounds i32, ptr %7, i64 %13
  ret ptr %14
}

; Function Attrs: nounwind uwtable
define i32 @Fra_ClausProcessClausesCut(ptr noundef %0, ptr noundef %1, ptr noundef %2, ptr noundef %3) #0 {
  %5 = alloca ptr, align 8
  %6 = alloca ptr, align 8
  %7 = alloca ptr, align 8
  %8 = alloca ptr, align 8
  %9 = alloca [32 x i32], align 16
  %10 = alloca [16 x ptr], align 16
  %11 = alloca i32, align 4
  %12 = alloca i32, align 4
  %13 = alloca i32, align 4
  %14 = alloca i32, align 4
  %15 = alloca i32, align 4
  %16 = alloca i32, align 4
  store ptr %0, ptr %5, align 8, !tbaa !3
  store ptr %1, ptr %6, align 8, !tbaa !48
  store ptr %2, ptr %7, align 8, !tbaa !50
  store ptr %3, ptr %8, align 8, !tbaa !42
  call void @llvm.lifetime.start.p0(i64 128, ptr %9) #11
  call void @llvm.lifetime.start.p0(i64 128, ptr %10) #11
  call void @llvm.lifetime.start.p0(i64 4, ptr %11) #11
  call void @llvm.lifetime.start.p0(i64 4, ptr %12) #11
  call void @llvm.lifetime.start.p0(i64 4, ptr %13) #11
  call void @llvm.lifetime.start.p0(i64 4, ptr %14) #11
  call void @llvm.lifetime.start.p0(i64 4, ptr %15) #11
  call void @llvm.lifetime.start.p0(i64 4, ptr %16) #11
  %17 = load ptr, ptr %6, align 8, !tbaa !48
  %18 = getelementptr inbounds nuw %struct.Fra_Sml_t_, ptr %17, i32 0, i32 4
  %19 = load i32, ptr %18, align 4, !tbaa !52
  %20 = load ptr, ptr %5, align 8, !tbaa !3
  %21 = getelementptr inbounds nuw %struct.Clu_Man_t_, ptr %20, i32 0, i32 12
  %22 = load i32, ptr %21, align 8, !tbaa !54
  %23 = sub nsw i32 %19, %22
  store i32 %23, ptr %16, align 4, !tbaa !21
  store i32 0, ptr %13, align 4, !tbaa !21
  br label %24

24:                                               ; preds = %48, %4
  %25 = load i32, ptr %13, align 4, !tbaa !21
  %26 = load ptr, ptr %7, align 8, !tbaa !50
  %27 = getelementptr inbounds nuw %struct.Dar_Cut_t_, ptr %26, i32 0, i32 1
  %28 = load i32, ptr %27, align 4
  %29 = lshr i32 %28, 29
  %30 = icmp slt i32 %25, %29
  br i1 %30, label %31, label %51

31:                                               ; preds = %24
  %32 = load ptr, ptr %6, align 8, !tbaa !48
  %33 = load ptr, ptr %7, align 8, !tbaa !50
  %34 = getelementptr inbounds nuw %struct.Dar_Cut_t_, ptr %33, i32 0, i32 2
  %35 = load i32, ptr %13, align 4, !tbaa !21
  %36 = sext i32 %35 to i64
  %37 = getelementptr inbounds [4 x i32], ptr %34, i64 0, i64 %36
  %38 = load i32, ptr %37, align 4, !tbaa !21
  %39 = call ptr @Fra_ObjSim(ptr noundef %32, i32 noundef %38)
  %40 = load ptr, ptr %5, align 8, !tbaa !3
  %41 = getelementptr inbounds nuw %struct.Clu_Man_t_, ptr %40, i32 0, i32 12
  %42 = load i32, ptr %41, align 8, !tbaa !54
  %43 = sext i32 %42 to i64
  %44 = getelementptr inbounds i32, ptr %39, i64 %43
  %45 = load i32, ptr %13, align 4, !tbaa !21
  %46 = sext i32 %45 to i64
  %47 = getelementptr inbounds [16 x ptr], ptr %10, i64 0, i64 %46
  store ptr %44, ptr %47, align 8, !tbaa !42
  br label %48

48:                                               ; preds = %31
  %49 = load i32, ptr %13, align 4, !tbaa !21
  %50 = add nsw i32 %49, 1
  store i32 %50, ptr %13, align 4, !tbaa !21
  br label %24, !llvm.loop !55

51:                                               ; preds = %24
  %52 = load ptr, ptr %8, align 8, !tbaa !42
  call void @llvm.memset.p0.i64(ptr align 4 %52, i8 0, i64 64, i1 false)
  %53 = load i32, ptr %16, align 4, !tbaa !21
  %54 = sdiv i32 %53, 8
  store i32 %54, ptr %12, align 4, !tbaa !21
  store i32 0, ptr %13, align 4, !tbaa !21
  br label %55

55:                                               ; preds = %129, %51
  %56 = load i32, ptr %13, align 4, !tbaa !21
  %57 = load i32, ptr %12, align 4, !tbaa !21
  %58 = icmp slt i32 %56, %57
  br i1 %58, label %59, label %132

59:                                               ; preds = %55
  %60 = getelementptr inbounds [32 x i32], ptr %9, i64 0, i64 0
  call void @llvm.memset.p0.i64(ptr align 16 %60, i8 0, i64 128, i1 false)
  store i32 0, ptr %14, align 4, !tbaa !21
  br label %61

61:                                               ; preds = %95, %59
  %62 = load i32, ptr %14, align 4, !tbaa !21
  %63 = icmp slt i32 %62, 8
  br i1 %63, label %64, label %98

64:                                               ; preds = %61
  store i32 0, ptr %15, align 4, !tbaa !21
  br label %65

65:                                               ; preds = %91, %64
  %66 = load i32, ptr %15, align 4, !tbaa !21
  %67 = load ptr, ptr %7, align 8, !tbaa !50
  %68 = getelementptr inbounds nuw %struct.Dar_Cut_t_, ptr %67, i32 0, i32 1
  %69 = load i32, ptr %68, align 4
  %70 = lshr i32 %69, 29
  %71 = icmp slt i32 %66, %70
  br i1 %71, label %72, label %94

72:                                               ; preds = %65
  %73 = load i32, ptr %15, align 4, !tbaa !21
  %74 = sext i32 %73 to i64
  %75 = getelementptr inbounds [16 x ptr], ptr %10, i64 0, i64 %74
  %76 = load ptr, ptr %75, align 8, !tbaa !42
  %77 = load i32, ptr %13, align 4, !tbaa !21
  %78 = mul nsw i32 %77, 8
  %79 = load i32, ptr %14, align 4, !tbaa !21
  %80 = add nsw i32 %78, %79
  %81 = sext i32 %80 to i64
  %82 = getelementptr inbounds i32, ptr %76, i64 %81
  %83 = load i32, ptr %82, align 4, !tbaa !21
  %84 = load i32, ptr %14, align 4, !tbaa !21
  %85 = mul nsw i32 %84, 4
  %86 = load i32, ptr %15, align 4, !tbaa !21
  %87 = add nsw i32 %85, %86
  %88 = sub nsw i32 31, %87
  %89 = sext i32 %88 to i64
  %90 = getelementptr inbounds [32 x i32], ptr %9, i64 0, i64 %89
  store i32 %83, ptr %90, align 4, !tbaa !21
  br label %91

91:                                               ; preds = %72
  %92 = load i32, ptr %15, align 4, !tbaa !21
  %93 = add nsw i32 %92, 1
  store i32 %93, ptr %15, align 4, !tbaa !21
  br label %65, !llvm.loop !56

94:                                               ; preds = %65
  br label %95

95:                                               ; preds = %94
  %96 = load i32, ptr %14, align 4, !tbaa !21
  %97 = add nsw i32 %96, 1
  store i32 %97, ptr %14, align 4, !tbaa !21
  br label %61, !llvm.loop !57

98:                                               ; preds = %61
  %99 = getelementptr inbounds [32 x i32], ptr %9, i64 0, i64 0
  call void @transpose32a(ptr noundef %99)
  store i32 0, ptr %14, align 4, !tbaa !21
  br label %100

100:                                              ; preds = %125, %98
  %101 = load i32, ptr %14, align 4, !tbaa !21
  %102 = icmp slt i32 %101, 32
  br i1 %102, label %103, label %128

103:                                              ; preds = %100
  store i32 0, ptr %15, align 4, !tbaa !21
  %104 = load i32, ptr %14, align 4, !tbaa !21
  %105 = sext i32 %104 to i64
  %106 = getelementptr inbounds [32 x i32], ptr %9, i64 0, i64 %105
  %107 = load i32, ptr %106, align 4, !tbaa !21
  store i32 %107, ptr %11, align 4, !tbaa !21
  br label %108

108:                                              ; preds = %119, %103
  %109 = load i32, ptr %15, align 4, !tbaa !21
  %110 = icmp slt i32 %109, 8
  br i1 %110, label %111, label %124

111:                                              ; preds = %108
  %112 = load ptr, ptr %8, align 8, !tbaa !42
  %113 = load i32, ptr %11, align 4, !tbaa !21
  %114 = and i32 %113, 15
  %115 = zext i32 %114 to i64
  %116 = getelementptr inbounds nuw i32, ptr %112, i64 %115
  %117 = load i32, ptr %116, align 4, !tbaa !21
  %118 = add nsw i32 %117, 1
  store i32 %118, ptr %116, align 4, !tbaa !21
  br label %119

119:                                              ; preds = %111
  %120 = load i32, ptr %15, align 4, !tbaa !21
  %121 = add nsw i32 %120, 1
  store i32 %121, ptr %15, align 4, !tbaa !21
  %122 = load i32, ptr %11, align 4, !tbaa !21
  %123 = lshr i32 %122, 4
  store i32 %123, ptr %11, align 4, !tbaa !21
  br label %108, !llvm.loop !58

124:                                              ; preds = %108
  br label %125

125:                                              ; preds = %124
  %126 = load i32, ptr %14, align 4, !tbaa !21
  %127 = add nsw i32 %126, 1
  store i32 %127, ptr %14, align 4, !tbaa !21
  br label %100, !llvm.loop !59

128:                                              ; preds = %100
  br label %129

129:                                              ; preds = %128
  %130 = load i32, ptr %13, align 4, !tbaa !21
  %131 = add nsw i32 %130, 1
  store i32 %131, ptr %13, align 4, !tbaa !21
  br label %55, !llvm.loop !60

132:                                              ; preds = %55
  store i32 0, ptr %11, align 4, !tbaa !21
  store i32 0, ptr %13, align 4, !tbaa !21
  br label %133

133:                                              ; preds = %149, %132
  %134 = load i32, ptr %13, align 4, !tbaa !21
  %135 = icmp slt i32 %134, 16
  br i1 %135, label %136, label %152

136:                                              ; preds = %133
  %137 = load ptr, ptr %8, align 8, !tbaa !42
  %138 = load i32, ptr %13, align 4, !tbaa !21
  %139 = sext i32 %138 to i64
  %140 = getelementptr inbounds i32, ptr %137, i64 %139
  %141 = load i32, ptr %140, align 4, !tbaa !21
  %142 = icmp ne i32 %141, 0
  br i1 %142, label %143, label %148

143:                                              ; preds = %136
  %144 = load i32, ptr %13, align 4, !tbaa !21
  %145 = shl i32 1, %144
  %146 = load i32, ptr %11, align 4, !tbaa !21
  %147 = or i32 %146, %145
  store i32 %147, ptr %11, align 4, !tbaa !21
  br label %148

148:                                              ; preds = %143, %136
  br label %149

149:                                              ; preds = %148
  %150 = load i32, ptr %13, align 4, !tbaa !21
  %151 = add nsw i32 %150, 1
  store i32 %151, ptr %13, align 4, !tbaa !21
  br label %133, !llvm.loop !61

152:                                              ; preds = %133
  %153 = load i32, ptr %11, align 4, !tbaa !21
  call void @llvm.lifetime.end.p0(i64 4, ptr %16) #11
  call void @llvm.lifetime.end.p0(i64 4, ptr %15) #11
  call void @llvm.lifetime.end.p0(i64 4, ptr %14) #11
  call void @llvm.lifetime.end.p0(i64 4, ptr %13) #11
  call void @llvm.lifetime.end.p0(i64 4, ptr %12) #11
  call void @llvm.lifetime.end.p0(i64 4, ptr %11) #11
  call void @llvm.lifetime.end.p0(i64 128, ptr %10) #11
  call void @llvm.lifetime.end.p0(i64 128, ptr %9) #11
  ret i32 %153
}