; Function Attrs: nofree norecurse nosync nounwind memory(read, argmem: readwrite, inaccessiblemem: none) uwtable
define i32 @Fra_ClausProcessClausesCut(ptr noundef readonly captures(none) %0, ptr noundef %1, ptr noundef readonly captures(none) %2, ptr noundef captures(none) %3) local_unnamed_addr #6 {
  %5 = alloca [32 x i32], align 16
  %6 = alloca [16 x ptr], align 16
  call void @llvm.lifetime.start.p0(i64 128, ptr nonnull %5) #23
  call void @llvm.lifetime.start.p0(i64 128, ptr nonnull %6) #23
  %7 = getelementptr inbounds nuw i8, ptr %1, i64 20
  %8 = load i32, ptr %7, align 4, !tbaa !45
  %9 = getelementptr inbounds nuw i8, ptr %0, i64 48
  %10 = load i32, ptr %9, align 8, !tbaa !47
  %11 = sub nsw i32 %8, %10
  %12 = getelementptr inbounds nuw i8, ptr %2, i64 4
  %13 = load i32, ptr %12, align 4
  %.not61 = icmp ult i32 %13, 536870912
  br i1 %.not61, label %._crit_edge, label %.lr.ph

.lr.ph:                                           ; preds = %4
  %14 = lshr i32 %13, 29
  %15 = getelementptr inbounds nuw i8, ptr %2, i64 8
  %16 = getelementptr inbounds nuw i8, ptr %1, i64 40
  %17 = sext i32 %10 to i64
  %invariant.gep = getelementptr i32, ptr %16, i64 %17
  %wide.trip.count = zext nneg i32 %14 to i64
  br label %18

18:                                               ; preds = %.lr.ph, %18
  %indvars.iv = phi i64 [ 0, %.lr.ph ], [ %indvars.iv.next, %18 ]
  %19 = getelementptr inbounds nuw [4 x i32], ptr %15, i64 0, i64 %indvars.iv
  %20 = load i32, ptr %19, align 4, !tbaa !38
  %21 = mul nsw i32 %20, %8
  %22 = sext i32 %21 to i64
  %gep = getelementptr i32, ptr %invariant.gep, i64 %22
  %23 = getelementptr inbounds nuw [16 x ptr], ptr %6, i64 0, i64 %indvars.iv
  store ptr %gep, ptr %23, align 8, !tbaa !48
  %indvars.iv.next = add nuw nsw i64 %indvars.iv, 1
  %exitcond.not = icmp eq i64 %indvars.iv.next, %wide.trip.count
  br i1 %exitcond.not, label %._crit_edge, label %18, !llvm.loop !49

._crit_edge:                                      ; preds = %18, %4
  tail call void @llvm.memset.p0.i64(ptr noundef nonnull align 4 dereferenceable(64) %3, i8 0, i64 64, i1 false)
  %24 = icmp sgt i32 %11, 7
  br i1 %24, label %.lr.ph58.preheader, label %.preheader.preheader

.lr.ph58.preheader:                               ; preds = %._crit_edge
  %25 = lshr i32 %11, 3
  %wide.trip.count82 = zext nneg i32 %25 to i64
  br label %.lr.ph58

.lr.ph58:                                         ; preds = %.lr.ph58.preheader, %76
  %indvars.iv79 = phi i64 [ 0, %.lr.ph58.preheader ], [ %indvars.iv.next80, %76 ]
  call void @llvm.memset.p0.i64(ptr noundef nonnull align 16 dereferenceable(128) %5, i8 0, i64 128, i1 false)
  %26 = load i32, ptr %12, align 4
  %.not62 = icmp ult i32 %26, 536870912
  br i1 %.not62, label %.preheader.i.preheader, label %.preheader47.us.preheader

.preheader47.us.preheader:                        ; preds = %.lr.ph58
  %27 = lshr i32 %26, 29
  %wide.trip.count68 = zext nneg i32 %27 to i64
  %.idx = shl nsw i64 %indvars.iv79, 5
  br label %.preheader47.us

.preheader47.us:                                  ; preds = %.preheader47.us.preheader, %._crit_edge51.us
  %indvars.iv70 = phi i64 [ 0, %.preheader47.us.preheader ], [ %indvars.iv.next71, %._crit_edge51.us ]
  %28 = shl i64 %indvars.iv70, 2
  br label %29

29:                                               ; preds = %.preheader47.us, %29
  %indvars.iv65 = phi i64 [ 0, %.preheader47.us ], [ %indvars.iv.next66, %29 ]
  %30 = getelementptr inbounds nuw [16 x ptr], ptr %6, i64 0, i64 %indvars.iv65
  %31 = load ptr, ptr %30, align 8, !tbaa !48
  %32 = getelementptr inbounds nuw i32, ptr %31, i64 %indvars.iv70
  %33 = getelementptr inbounds nuw i8, ptr %32, i64 %.idx
  %34 = load i32, ptr %33, align 4, !tbaa !38
  %35 = add nuw nsw i64 %28, %indvars.iv65
  %36 = sub nsw i64 31, %35
  %37 = getelementptr inbounds [32 x i32], ptr %5, i64 0, i64 %36
  store i32 %34, ptr %37, align 4, !tbaa !38
  %indvars.iv.next66 = add nuw nsw i64 %indvars.iv65, 1
  %exitcond69.not = icmp eq i64 %indvars.iv.next66, %wide.trip.count68
  br i1 %exitcond69.not, label %._crit_edge51.us, label %29, !llvm.loop !50

._crit_edge51.us:                                 ; preds = %29
  %indvars.iv.next71 = add nuw nsw i64 %indvars.iv70, 1
  %exitcond73.not = icmp eq i64 %indvars.iv.next71, 8
  br i1 %exitcond73.not, label %.preheader.i.preheader, label %.preheader47.us, !llvm.loop !51

.preheader.i.preheader:                           ; preds = %._crit_edge51.us, %.lr.ph58
  br label %.preheader.i

.preheader.i:                                     ; preds = %.preheader.i.preheader, %61
  %.027.i = phi i32 [ %62, %61 ], [ 16, %.preheader.i.preheader ]
  %.02326.i = phi i64 [ %65, %61 ], [ 65535, %.preheader.i.preheader ]
  %38 = zext nneg i32 %.027.i to i64
  %39 = xor i32 %.027.i, -1
  br label %40

40:                                               ; preds = %40, %.preheader.i
  %.02425.i = phi i32 [ 0, %.preheader.i ], [ %59, %40 ]
  %41 = sext i32 %.02425.i to i64
  %42 = getelementptr inbounds i32, ptr %5, i64 %41
  %43 = load i32, ptr %42, align 4, !tbaa !38
  %44 = or i32 %.02425.i, %.027.i
  %45 = sext i32 %44 to i64
  %46 = getelementptr inbounds i32, ptr %5, i64 %45
  %47 = load i32, ptr %46, align 4, !tbaa !38
  %48 = lshr i32 %47, %.027.i
  %49 = xor i32 %48, %43
  %50 = zext i32 %49 to i64
  %51 = and i64 %.02326.i, %50
  %52 = trunc nuw i64 %51 to i32
  %53 = xor i32 %43, %52
  store i32 %53, ptr %42, align 4, !tbaa !38
  %54 = shl nuw nsw i64 %51, %38
  %55 = load i32, ptr %46, align 4, !tbaa !38
  %56 = trunc i64 %54 to i32
  %57 = xor i32 %55, %56
  store i32 %57, ptr %46, align 4, !tbaa !38
  %58 = add nsw i32 %44, 1
  %59 = and i32 %58, %39
  %60 = icmp slt i32 %59, 32
  br i1 %60, label %40, label %61, !llvm.loop !43

61:                                               ; preds = %40
  %62 = lshr i32 %.027.i, 1
  %63 = zext nneg i32 %62 to i64
  %64 = shl i64 %.02326.i, %63
  %65 = xor i64 %64, %.02326.i
  %.not.i = icmp samesign ult i32 %.027.i, 2
  br i1 %.not.i, label %transpose32a.exit.preheader, label %.preheader.i, !llvm.loop !44

transpose32a.exit.preheader:                      ; preds = %61, %transpose32a.exit
  %indvars.iv75 = phi i64 [ %indvars.iv.next76, %transpose32a.exit ], [ 0, %61 ]
  %66 = getelementptr inbounds nuw [32 x i32], ptr %5, i64 0, i64 %indvars.iv75
  %67 = load i32, ptr %66, align 4, !tbaa !38
  br label %68

68:                                               ; preds = %transpose32a.exit.preheader, %68
  %.054 = phi i32 [ %67, %transpose32a.exit.preheader ], [ %75, %68 ]
  %.14053 = phi i32 [ 0, %transpose32a.exit.preheader ], [ %74, %68 ]
  %69 = and i32 %.054, 15
  %70 = zext nneg i32 %69 to i64
  %71 = getelementptr inbounds nuw i32, ptr %3, i64 %70
  %72 = load i32, ptr %71, align 4, !tbaa !38
  %73 = add nsw i32 %72, 1
  store i32 %73, ptr %71, align 4, !tbaa !38
  %74 = add nuw nsw i32 %.14053, 1
  %75 = lshr i32 %.054, 4
  %exitcond74.not = icmp eq i32 %74, 8
  br i1 %exitcond74.not, label %transpose32a.exit, label %68, !llvm.loop !52

transpose32a.exit:                                ; preds = %68
  %indvars.iv.next76 = add nuw nsw i64 %indvars.iv75, 1
  %exitcond78.not = icmp eq i64 %indvars.iv.next76, 32
  br i1 %exitcond78.not, label %76, label %transpose32a.exit.preheader, !llvm.loop !53

76:                                               ; preds = %transpose32a.exit
  %indvars.iv.next80 = add nuw nsw i64 %indvars.iv79, 1
  %exitcond83.not = icmp eq i64 %indvars.iv.next80, %wide.trip.count82
  br i1 %exitcond83.not, label %.preheader.preheader, label %.lr.ph58, !llvm.loop !54

.preheader.preheader:                             ; preds = %76, %._crit_edge
  br label %.preheader

.preheader:                                       ; preds = %.preheader.preheader, %.preheader
  %indvars.iv84 = phi i64 [ %indvars.iv.next85, %.preheader ], [ 0, %.preheader.preheader ]
  %.160 = phi i32 [ %.2, %.preheader ], [ 0, %.preheader.preheader ]
  %77 = getelementptr inbounds nuw i32, ptr %3, i64 %indvars.iv84
  %78 = load i32, ptr %77, align 4, !tbaa !38
  %.not = icmp eq i32 %78, 0
  %79 = trunc nuw nsw i64 %indvars.iv84 to i32
  %80 = shl nuw nsw i32 1, %79
  %81 = select i1 %.not, i32 0, i32 %80
  %.2 = or i32 %81, %.160
  %indvars.iv.next85 = add nuw nsw i64 %indvars.iv84, 1
  %exitcond87.not = icmp eq i64 %indvars.iv.next85, 16
  br i1 %exitcond87.not, label %82, label %.preheader, !llvm.loop !55

82:                                               ; preds = %.preheader
  call void @llvm.lifetime.end.p0(i64 128, ptr nonnull %6) #23
  call void @llvm.lifetime.end.p0(i64 128, ptr nonnull %5) #23
  ret i32 %.2
}